target datalayout = "e-m:e-p270:32:32-p271:32:32-p272:64:64-i64:64-i128:128-f80:128-n8:16:32:64-S128"
target triple = "x86_64-pc-linux-gnu"

%struct.black_TWorker_ = type { i32, i32, i32, i32, i32, ptr, ptr, ptr, ptr, i32, i8, i64, i64, i64, i64, i16, i32, ptr, ptr, ptr, i32, %struct.FT_Outline_, i32, i32, i32, ptr, ptr, ptr, ptr, ptr, ptr }
%struct.FT_Outline_ = type { i16, i16, ptr, ptr, ptr, i32 }
%struct.TProfile_ = type { ptr, ptr, i32, i32, i32, i16, i64, [1 x i64] }

; Function Attrs: nounwind uwtable
define internal signext i8 @New_Profile(ptr noundef %0, i32 noundef %1) #0 {
  %3 = alloca i8, align 1
  %4 = alloca ptr, align 8
  %5 = alloca i32, align 4
  %6 = alloca i64, align 8
  %7 = alloca i32, align 4
  store ptr %0, ptr %4, align 8, !tbaa !105
  store i32 %1, ptr %5, align 4, !tbaa !15
  call void @llvm.lifetime.start.p0(i64 8, ptr %6) #5
  %8 = load ptr, ptr %4, align 8, !tbaa !105
  %9 = getelementptr inbounds nuw %struct.black_TWorker_, ptr %8, i32 0, i32 17
  %10 = load ptr, ptr %9, align 8, !tbaa !128
  %11 = icmp ne ptr %10, null
  br i1 %11, label %12, label %19

12:                                               ; preds = %2
  %13 = load ptr, ptr %4, align 8, !tbaa !105
  %14 = getelementptr inbounds nuw %struct.black_TWorker_, ptr %13, i32 0, i32 17
  %15 = load ptr, ptr %14, align 8, !tbaa !128
  %16 = getelementptr inbounds nuw %struct.TProfile_, ptr %15, i32 0, i32 3
  %17 = load i32, ptr %16, align 4, !tbaa !148
  %18 = icmp ne i32 %17, 0
  br i1 %18, label %19, label %50

19:                                               ; preds = %12, %2
  %20 = load ptr, ptr %4, align 8, !tbaa !105
  %21 = getelementptr inbounds nuw %struct.black_TWorker_, ptr %20, i32 0, i32 8
  %22 = load ptr, ptr %21, align 8, !tbaa !129
  %23 = load ptr, ptr %4, align 8, !tbaa !105
  %24 = getelementptr inbounds nuw %struct.black_TWorker_, ptr %23, i32 0, i32 17
  store ptr %22, ptr %24, align 8, !tbaa !128
  %25 = load ptr, ptr %4, align 8, !tbaa !105
  %26 = getelementptr inbounds nuw %struct.black_TWorker_, ptr %25, i32 0, i32 17
  %27 = load ptr, ptr %26, align 8, !tbaa !128
  %28 = getelementptr inbounds nuw %struct.TProfile_, ptr %27, i32 0, i32 7
  %29 = getelementptr inbounds [1 x i64], ptr %28, i64 0, i64 0
  %30 = load ptr, ptr %4, align 8, !tbaa !105
  %31 = getelementptr inbounds nuw %struct.black_TWorker_, ptr %30, i32 0, i32 8
  store ptr %29, ptr %31, align 8, !tbaa !129
  %32 = load ptr, ptr %4, align 8, !tbaa !105
  %33 = getelementptr inbounds nuw %struct.black_TWorker_, ptr %32, i32 0, i32 8
  %34 = load ptr, ptr %33, align 8, !tbaa !129
  %35 = load ptr, ptr %4, align 8, !tbaa !105
  %36 = getelementptr inbounds nuw %struct.black_TWorker_, ptr %35, i32 0, i32 7
  %37 = load ptr, ptr %36, align 8, !tbaa !130
  %38 = icmp uge ptr %34, %37
  br i1 %38, label %39, label %45

39:                                               ; preds = %19
  br label %40

40:                                               ; preds = %39
  br label %41

41:                                               ; preds = %40
  br label %42

42:                                               ; preds = %41
  %43 = load ptr, ptr %4, align 8, !tbaa !105
  %44 = getelementptr inbounds nuw %struct.black_TWorker_, ptr %43, i32 0, i32 9
  store i32 98, ptr %44, align 8, !tbaa !126
  store i8 1, ptr %3, align 1
  store i32 1, ptr %7, align 4
  br label %220

45:                                               ; preds = %19
  %46 = load ptr, ptr %4, align 8, !tbaa !105
  %47 = getelementptr inbounds nuw %struct.black_TWorker_, ptr %46, i32 0, i32 17
  %48 = load ptr, ptr %47, align 8, !tbaa !128
  %49 = getelementptr inbounds nuw %struct.TProfile_, ptr %48, i32 0, i32 3
  store i32 0, ptr %49, align 4, !tbaa !148
  br label %50

50:                                               ; preds = %45, %12
  %51 = load ptr, ptr %4, align 8, !tbaa !105
  %52 = getelementptr inbounds nuw %struct.black_TWorker_, ptr %51, i32 0, i32 10
  %53 = load i8, ptr %52, align 4, !tbaa !110
  %54 = zext i8 %53 to i16
  %55 = load ptr, ptr %4, align 8, !tbaa !105
  %56 = getelementptr inbounds nuw %struct.black_TWorker_, ptr %55, i32 0, i32 17
  %57 = load ptr, ptr %56, align 8, !tbaa !128
  %58 = getelementptr inbounds nuw %struct.TProfile_, ptr %57, i32 0, i32 5
  store i16 %54, ptr %58, align 4, !tbaa !138
  %59 = load i32, ptr %5, align 4, !tbaa !15
  switch i32 %59, label %162 [
    i32 1, label %60
    i32 2, label %121
  ]

60:                                               ; preds = %50
  %61 = load ptr, ptr %4, align 8, !tbaa !105
  %62 = getelementptr inbounds nuw %struct.black_TWorker_, ptr %61, i32 0, i32 17
  %63 = load ptr, ptr %62, align 8, !tbaa !128
  %64 = getelementptr inbounds nuw %struct.TProfile_, ptr %63, i32 0, i32 5
  %65 = load i16, ptr %64, align 4, !tbaa !138
  %66 = zext i16 %65 to i32
  %67 = or i32 %66, 8
  %68 = trunc i32 %67 to i16
  store i16 %68, ptr %64, align 4, !tbaa !138
  %69 = load ptr, ptr %4, align 8, !tbaa !105
  %70 = getelementptr inbounds nuw %struct.black_TWorker_, ptr %69, i32 0, i32 12
  %71 = load i64, ptr %70, align 8, !tbaa !137
  %72 = load ptr, ptr %4, align 8, !tbaa !105
  %73 = getelementptr inbounds nuw %struct.black_TWorker_, ptr %72, i32 0, i32 1
  %74 = load i32, ptr %73, align 4, !tbaa !117
  %75 = sext i32 %74 to i64
  %76 = add nsw i64 %71, %75
  %77 = sub nsw i64 %76, 1
  %78 = load ptr, ptr %4, align 8, !tbaa !105
  %79 = getelementptr inbounds nuw %struct.black_TWorker_, ptr %78, i32 0, i32 1
  %80 = load i32, ptr %79, align 4, !tbaa !117
  %81 = sub nsw i32 0, %80
  %82 = sext i32 %81 to i64
  %83 = and i64 %77, %82
  %84 = load ptr, ptr %4, align 8, !tbaa !105
  %85 = getelementptr inbounds nuw %struct.black_TWorker_, ptr %84, i32 0, i32 12
  %86 = load i64, ptr %85, align 8, !tbaa !137
  %87 = sub nsw i64 %83, %86
  %88 = load ptr, ptr %4, align 8, !tbaa !105
  %89 = getelementptr inbounds nuw %struct.black_TWorker_, ptr %88, i32 0, i32 2
  %90 = load i32, ptr %89, align 8, !tbaa !118
  %91 = sext i32 %90 to i64
  %92 = icmp sge i64 %87, %91
  %93 = zext i1 %92 to i32
  %94 = trunc i32 %93 to i8
  %95 = icmp ne i8 %94, 0
  br i1 %95, label %96, label %105

96:                                               ; preds = %60
  %97 = load ptr, ptr %4, align 8, !tbaa !105
  %98 = getelementptr inbounds nuw %struct.black_TWorker_, ptr %97, i32 0, i32 17
  %99 = load ptr, ptr %98, align 8, !tbaa !128
  %100 = getelementptr inbounds nuw %struct.TProfile_, ptr %99, i32 0, i32 5
  %101 = load i16, ptr %100, align 4, !tbaa !138
  %102 = zext i16 %101 to i32
  %103 = or i32 %102, 32
  %104 = trunc i32 %103 to i16
  store i16 %104, ptr %100, align 4, !tbaa !138
  br label %105

105:                                              ; preds = %96, %60
  %106 = load ptr, ptr %4, align 8, !tbaa !105
  %107 = getelementptr inbounds nuw %struct.black_TWorker_, ptr %106, i32 0, i32 12
  %108 = load i64, ptr %107, align 8, !tbaa !137
  %109 = load ptr, ptr %4, align 8, !tbaa !105
  %110 = getelementptr inbounds nuw %struct.black_TWorker_, ptr %109, i32 0, i32 1
  %111 = load i32, ptr %110, align 4, !tbaa !117
  %112 = sext i32 %111 to i64
  %113 = add nsw i64 %108, %112
  %114 = sub nsw i64 %113, 1
  %115 = load ptr, ptr %4, align 8, !tbaa !105
  %116 = getelementptr inbounds nuw %struct.black_TWorker_, ptr %115, i32 0, i32 1
  %117 = load i32, ptr %116, align 4, !tbaa !117
  %118 = sub nsw i32 0, %117
  %119 = sext i32 %118 to i64
  %120 = and i64 %114, %119
  store i64 %120, ptr %6, align 8, !tbaa !23
  br label %168

121:                                              ; preds = %50
  %122 = load ptr, ptr %4, align 8, !tbaa !105
  %123 = getelementptr inbounds nuw %struct.black_TWorker_, ptr %122, i32 0, i32 12
  %124 = load i64, ptr %123, align 8, !tbaa !137
  %125 = load ptr, ptr %4, align 8, !tbaa !105
  %126 = getelementptr inbounds nuw %struct.black_TWorker_, ptr %125, i32 0, i32 12
  %127 = load i64, ptr %126, align 8, !tbaa !137
  %128 = load ptr, ptr %4, align 8, !tbaa !105
  %129 = getelementptr inbounds nuw %struct.black_TWorker_, ptr %128, i32 0, i32 1
  %130 = load i32, ptr %129, align 4, !tbaa !117
  %131 = sub nsw i32 0, %130
  %132 = sext i32 %131 to i64
  %133 = and i64 %127, %132
  %134 = sub nsw i64 %124, %133
  %135 = load ptr, ptr %4, align 8, !tbaa !105
  %136 = getelementptr inbounds nuw %struct.black_TWorker_, ptr %135, i32 0, i32 2
  %137 = load i32, ptr %136, align 8, !tbaa !118
  %138 = sext i32 %137 to i64
  %139 = icmp sge i64 %134, %138
  %140 = zext i1 %139 to i32
  %141 = trunc i32 %140 to i8
  %142 = icmp ne i8 %141, 0
  br i1 %142, label %143, label %152

143:                                              ; preds = %121
  %144 = load ptr, ptr %4, align 8, !tbaa !105
  %145 = getelementptr inbounds nuw %struct.black_TWorker_, ptr %144, i32 0, i32 17
  %146 = load ptr, ptr %145, align 8, !tbaa !128
  %147 = getelementptr inbounds nuw %struct.TProfile_, ptr %146, i32 0, i32 5
  %148 = load i16, ptr %147, align 4, !tbaa !138
  %149 = zext i16 %148 to i32
  %150 = or i32 %149, 16
  %151 = trunc i32 %150 to i16
  store i16 %151, ptr %147, align 4, !tbaa !138
  br label %152

152:                                              ; preds = %143, %121
  %153 = load ptr, ptr %4, align 8, !tbaa !105
  %154 = getelementptr inbounds nuw %struct.black_TWorker_, ptr %153, i32 0, i32 12
  %155 = load i64, ptr %154, align 8, !tbaa !137
  %156 = load ptr, ptr %4, align 8, !tbaa !105
  %157 = getelementptr inbounds nuw %struct.black_TWorker_, ptr %156, i32 0, i32 1
  %158 = load i32, ptr %157, align 4, !tbaa !117
  %159 = sub nsw i32 0, %158
  %160 = sext i32 %159 to i64
  %161 = and i64 %155, %160
  store i64 %161, ptr %6, align 8, !tbaa !23
  br label %168

162:                                              ; preds = %50
  br label %163

163:                                              ; preds = %162
  br label %164

164:                                              ; preds = %163
  br label %165

165:                                              ; preds = %164
  %166 = load ptr, ptr %4, align 8, !tbaa !105
  %167 = getelementptr inbounds nuw %struct.black_TWorker_, ptr %166, i32 0, i32 9
  store i32 20, ptr %167, align 8, !tbaa !126
  store i8 1, ptr %3, align 1
  store i32 1, ptr %7, align 4
  br label %220

168:                                              ; preds = %152, %105
  %169 = load i64, ptr %6, align 8, !tbaa !23
  %170 = load ptr, ptr %4, align 8, !tbaa !105
  %171 = getelementptr inbounds nuw %struct.black_TWorker_, ptr %170, i32 0, i32 14
  %172 = load i64, ptr %171, align 8, !tbaa !125
  %173 = icmp sgt i64 %169, %172
  br i1 %173, label %174, label %178

174:                                              ; preds = %168
  %175 = load ptr, ptr %4, align 8, !tbaa !105
  %176 = getelementptr inbounds nuw %struct.black_TWorker_, ptr %175, i32 0, i32 14
  %177 = load i64, ptr %176, align 8, !tbaa !125
  store i64 %177, ptr %6, align 8, !tbaa !23
  br label %178

178:                                              ; preds = %174, %168
  %179 = load i64, ptr %6, align 8, !tbaa !23
  %180 = load ptr, ptr %4, align 8, !tbaa !105
  %181 = getelementptr inbounds nuw %struct.black_TWorker_, ptr %180, i32 0, i32 13
  %182 = load i64, ptr %181, align 8, !tbaa !124
  %183 = icmp slt i64 %179, %182
  br i1 %183, label %184, label %188

184:                                              ; preds = %178
  %185 = load ptr, ptr %4, align 8, !tbaa !105
  %186 = getelementptr inbounds nuw %struct.black_TWorker_, ptr %185, i32 0, i32 13
  %187 = load i64, ptr %186, align 8, !tbaa !124
  store i64 %187, ptr %6, align 8, !tbaa !23
  br label %188

188:                                              ; preds = %184, %178
  %189 = load i64, ptr %6, align 8, !tbaa !23
  %190 = load ptr, ptr %4, align 8, !tbaa !105
  %191 = getelementptr inbounds nuw %struct.black_TWorker_, ptr %190, i32 0, i32 0
  %192 = load i32, ptr %191, align 8, !tbaa !115
  %193 = zext i32 %192 to i64
  %194 = ashr i64 %189, %193
  %195 = trunc i64 %194 to i32
  %196 = load ptr, ptr %4, align 8, !tbaa !105
  %197 = getelementptr inbounds nuw %struct.black_TWorker_, ptr %196, i32 0, i32 17
  %198 = load ptr, ptr %197, align 8, !tbaa !128
  %199 = getelementptr inbounds nuw %struct.TProfile_, ptr %198, i32 0, i32 4
  store i32 %195, ptr %199, align 8, !tbaa !144
  br label %200

200:                                              ; preds = %188
  br label %201

201:                                              ; preds = %200
  br label %202

202:                                              ; preds = %201
  %203 = load ptr, ptr %4, align 8, !tbaa !105
  %204 = getelementptr inbounds nuw %struct.black_TWorker_, ptr %203, i32 0, i32 12
  %205 = load i64, ptr %204, align 8, !tbaa !137
  %206 = load i64, ptr %6, align 8, !tbaa !23
  %207 = icmp eq i64 %205, %206
  br i1 %207, label %208, label %216

208:                                              ; preds = %202
  %209 = load ptr, ptr %4, align 8, !tbaa !105
  %210 = getelementptr inbounds nuw %struct.black_TWorker_, ptr %209, i32 0, i32 11
  %211 = load i64, ptr %210, align 8, !tbaa !158
  %212 = load ptr, ptr %4, align 8, !tbaa !105
  %213 = getelementptr inbounds nuw %struct.black_TWorker_, ptr %212, i32 0, i32 8
  %214 = load ptr, ptr %213, align 8, !tbaa !129
  %215 = getelementptr inbounds nuw i64, ptr %214, i32 1
  store ptr %215, ptr %213, align 8, !tbaa !129
  store i64 %211, ptr %214, align 8, !tbaa !23
  br label %216

216:                                              ; preds = %208, %202
  %217 = load i32, ptr %5, align 4, !tbaa !15
  %218 = load ptr, ptr %4, align 8, !tbaa !105
  %219 = getelementptr inbounds nuw %struct.black_TWorker_, ptr %218, i32 0, i32 20
  store i32 %217, ptr %219, align 8, !tbaa !134
  store i8 0, ptr %3, align 1
  store i32 1, ptr %7, align 4
  br label %220

220:                                              ; preds = %216, %165, %42
  call void @llvm.lifetime.end.p0(i64 8, ptr %6) #5
  %221 = load i8, ptr %3, align 1
  ret i8 %221
}