; Function Attrs: mustprogress nofree norecurse nosync nounwind willreturn memory(readwrite, inaccessiblemem: none) uwtable
define internal fastcc signext range(i8 0, 2) i8 @New_Profile(ptr noundef nonnull captures(none) %0, i32 noundef range(i32 1, 3) %1) unnamed_addr #6 {
  %3 = getelementptr inbounds nuw i8, ptr %0, i64 104
  %4 = load ptr, ptr %3, align 8, !tbaa !117
  %.not = icmp eq ptr %4, null
  br i1 %.not, label %8, label %5

5:                                                ; preds = %2
  %6 = getelementptr inbounds nuw i8, ptr %4, i64 20
  %7 = load i32, ptr %6, align 4, !tbaa !129
  %.not50 = icmp eq i32 %7, 0
  br i1 %.not50, label %16, label %8

8:                                                ; preds = %5, %2
  %9 = getelementptr inbounds nuw i8, ptr %0, i64 48
  %10 = load ptr, ptr %9, align 8, !tbaa !100
  store ptr %10, ptr %3, align 8, !tbaa !117
  %11 = getelementptr inbounds nuw i8, ptr %10, i64 40
  store ptr %11, ptr %9, align 8, !tbaa !100
  %12 = getelementptr inbounds nuw i8, ptr %0, i64 40
  %13 = load ptr, ptr %12, align 8, !tbaa !101
  %.not51 = icmp ult ptr %11, %13
  br i1 %.not51, label %14, label %74

14:                                               ; preds = %8
  %15 = getelementptr inbounds nuw i8, ptr %10, i64 20
  store i32 0, ptr %15, align 4, !tbaa !129
  br label %16

16:                                               ; preds = %14, %5
  %17 = phi ptr [ %10, %14 ], [ %4, %5 ]
  %18 = getelementptr inbounds nuw i8, ptr %0, i64 60
  %19 = load i8, ptr %18, align 4, !tbaa !110
  %20 = zext i8 %19 to i16
  %21 = getelementptr inbounds nuw i8, ptr %17, i64 28
  store i16 %20, ptr %21, align 4, !tbaa !115
  %switch = icmp eq i32 %1, 1
  br i1 %switch, label %22, label %40

22:                                               ; preds = %16
  %23 = or i16 %20, 8
  store i16 %23, ptr %21, align 4, !tbaa !115
  %24 = getelementptr inbounds nuw i8, ptr %0, i64 72
  %25 = load i64, ptr %24, align 8, !tbaa !112
  %26 = getelementptr inbounds nuw i8, ptr %0, i64 4
  %27 = load i32, ptr %26, align 4, !tbaa !88
  %28 = sext i32 %27 to i64
  %29 = add i64 %25, -1
  %30 = add i64 %29, %28
  %31 = sub nsw i32 0, %27
  %32 = sext i32 %31 to i64
  %33 = and i64 %30, %32
  %34 = sub nsw i64 %33, %25
  %35 = getelementptr inbounds nuw i8, ptr %0, i64 8
  %36 = load i32, ptr %35, align 8, !tbaa !89
  %37 = sext i32 %36 to i64
  %.not54 = icmp slt i64 %34, %37
  br i1 %.not54, label %56, label %38

38:                                               ; preds = %22
  %39 = or i16 %20, 40
  store i16 %39, ptr %21, align 4, !tbaa !115
  br label %56

40:                                               ; preds = %16
  %41 = getelementptr inbounds nuw i8, ptr %0, i64 72
  %42 = load i64, ptr %41, align 8, !tbaa !112
  %43 = getelementptr inbounds nuw i8, ptr %0, i64 4
  %44 = load i32, ptr %43, align 4, !tbaa !88
  %45 = add i32 %44, -1
  %.not52 = sext i32 %45 to i64
  %46 = and i64 %42, %.not52
  %47 = getelementptr inbounds nuw i8, ptr %0, i64 8
  %48 = load i32, ptr %47, align 8, !tbaa !89
  %49 = sext i32 %48 to i64
  %.not53 = icmp slt i64 %46, %49
  br i1 %.not53, label %52, label %50

50:                                               ; preds = %40
  %51 = or i16 %20, 16
  store i16 %51, ptr %21, align 4, !tbaa !115
  br label %52

52:                                               ; preds = %50, %40
  %53 = sub nsw i32 0, %44
  %54 = sext i32 %53 to i64
  %55 = and i64 %42, %54
  br label %56

56:                                               ; preds = %22, %38, %52
  %57 = phi i64 [ %42, %52 ], [ %25, %38 ], [ %25, %22 ]
  %.0 = phi i64 [ %55, %52 ], [ %33, %38 ], [ %33, %22 ]
  %58 = getelementptr inbounds nuw i8, ptr %0, i64 88
  %59 = load i64, ptr %58, align 8, !tbaa !98
  %spec.select = tail call i64 @llvm.smin.i64(i64 %.0, i64 %59)
  %60 = getelementptr inbounds nuw i8, ptr %0, i64 80
  %61 = load i64, ptr %60, align 8, !tbaa !97
  %.2 = tail call i64 @llvm.smax.i64(i64 %spec.select, i64 %61)
  %62 = load i32, ptr %0, align 8, !tbaa !86
  %63 = zext nneg i32 %62 to i64
  %64 = ashr i64 %.2, %63
  %65 = trunc i64 %64 to i32
  %66 = getelementptr inbounds nuw i8, ptr %17, i64 24
  store i32 %65, ptr %66, align 8, !tbaa !125
  %67 = icmp eq i64 %57, %.2
  br i1 %67, label %68, label %74

68:                                               ; preds = %56
  %69 = getelementptr inbounds nuw i8, ptr %0, i64 64
  %70 = load i64, ptr %69, align 8, !tbaa !111
  %71 = getelementptr inbounds nuw i8, ptr %0, i64 48
  %72 = load ptr, ptr %71, align 8, !tbaa !100
  %73 = getelementptr inbounds nuw i8, ptr %72, i64 8
  store ptr %73, ptr %71, align 8, !tbaa !100
  store i64 %70, ptr %72, align 8, !tbaa !124
  br label %74

74:                                               ; preds = %56, %68, %8
  %.sink56 = phi i64 [ 56, %8 ], [ 128, %68 ], [ 128, %56 ]
  %.sink = phi i32 [ 98, %8 ], [ %1, %68 ], [ %1, %56 ]
  %.046 = phi i8 [ 1, %8 ], [ 0, %68 ], [ 0, %56 ]
  %75 = getelementptr inbounds nuw i8, ptr %0, i64 %.sink56
  store i32 %.sink, ptr %75, align 8, !tbaa !3
  ret i8 %.046
}